target datalayout = "e-m:e-p270:32:32-p271:32:32-p272:64:64-i64:64-i128:128-f80:128-n8:16:32:64-S128"
target triple = "x86_64-pc-linux-gnu"

%"class.rocksdb::MemMapping" = type { ptr, i64 }

$_ZN7rocksdb10MemMappingC2Ev = comdat any

$__clang_call_terminate = comdat any

@_ZN7rocksdb10MemMappingD1Ev = unnamed_addr alias void (ptr), ptr @_ZN7rocksdb10MemMappingD2Ev
@_ZN7rocksdb10MemMappingC1EOS0_ = unnamed_addr alias void (ptr, ptr), ptr @_ZN7rocksdb10MemMappingC2EOS0_

; Function Attrs: mustprogress nounwind uwtable
define void @_ZN7rocksdb10MemMappingD2Ev(ptr noundef nonnull align 8 dereferenceable(16) %0) unnamed_addr #0 align 2 {
  %2 = alloca ptr, align 8
  %3 = alloca i32, align 4
  store ptr %0, ptr %2, align 8, !tbaa !4
  %4 = load ptr, ptr %2, align 8
  %5 = getelementptr inbounds nuw %"class.rocksdb::MemMapping", ptr %4, i32 0, i32 0
  %6 = load ptr, ptr %5, align 8, !tbaa !9
  %7 = icmp ne ptr %6, null
  br i1 %7, label %8, label %18

8:                                                ; preds = %1
  call void @llvm.lifetime.start.p0(i64 4, ptr %3) #6
  %9 = getelementptr inbounds nuw %"class.rocksdb::MemMapping", ptr %4, i32 0, i32 0
  %10 = load ptr, ptr %9, align 8, !tbaa !9
  %11 = getelementptr inbounds nuw %"class.rocksdb::MemMapping", ptr %4, i32 0, i32 1
  %12 = load i64, ptr %11, align 8, !tbaa !12
  %13 = call i32 @munmap(ptr noundef %10, i64 noundef %12) #6
  store i32 %13, ptr %3, align 4, !tbaa !13
  %14 = load i32, ptr %3, align 4, !tbaa !13
  %15 = icmp ne i32 %14, 0
  br i1 %15, label %16, label %17

16:                                               ; preds = %8
  br label %17

17:                                               ; preds = %16, %8
  call void @llvm.lifetime.end.p0(i64 4, ptr %3) #6
  br label %18

18:                                               ; preds = %17, %1
  ret void
}

; Function Attrs: nocallback nofree nosync nounwind willreturn memory(argmem: readwrite)
declare void @llvm.lifetime.start.p0(i64 immarg, ptr captures(none)) #1

; Function Attrs: nounwind
declare i32 @munmap(ptr noundef, i64 noundef) #2

; Function Attrs: nocallback nofree nosync nounwind willreturn memory(argmem: readwrite)
declare void @llvm.lifetime.end.p0(i64 immarg, ptr captures(none)) #1

; Function Attrs: mustprogress nounwind uwtable
define void @_ZN7rocksdb10MemMappingC2EOS0_(ptr noundef nonnull align 8 dereferenceable(16) %0, ptr noundef nonnull align 8 dereferenceable(16) %1) unnamed_addr #0 align 2 {
  %3 = alloca ptr, align 8
  %4 = alloca ptr, align 8
  store ptr %0, ptr %3, align 8, !tbaa !4
  store ptr %1, ptr %4, align 8, !tbaa !4
  %5 = load ptr, ptr %3, align 8
  %6 = getelementptr inbounds nuw %"class.rocksdb::MemMapping", ptr %5, i32 0, i32 0
  store ptr null, ptr %6, align 8, !tbaa !9
  %7 = getelementptr inbounds nuw %"class.rocksdb::MemMapping", ptr %5, i32 0, i32 1
  store i64 0, ptr %7, align 8, !tbaa !12
  %8 = load ptr, ptr %4, align 8, !tbaa !4
  %9 = call noundef nonnull align 8 dereferenceable(16) ptr @_ZN7rocksdb10MemMappingaSEOS0_(ptr noundef nonnull align 8 dereferenceable(16) %5, ptr noundef nonnull align 8 dereferenceable(16) %8) #6
  ret void
}

; Function Attrs: mustprogress nounwind uwtable
define noundef nonnull align 8 dereferenceable(16) ptr @_ZN7rocksdb10MemMappingaSEOS0_(ptr noundef nonnull align 8 dereferenceable(16) %0, ptr noundef nonnull align 8 dereferenceable(16) %1) #0 align 2 personality ptr @__gxx_personality_v0 {
  %3 = alloca ptr, align 8
  %4 = alloca ptr, align 8
  %5 = alloca ptr, align 8
  store ptr %0, ptr %4, align 8, !tbaa !4
  store ptr %1, ptr %5, align 8, !tbaa !4
  %6 = load ptr, ptr %4, align 8
  %7 = load ptr, ptr %5, align 8, !tbaa !4
  %8 = icmp eq ptr %7, %6
  br i1 %8, label %9, label %10

9:                                                ; preds = %2
  store ptr %6, ptr %3, align 8
  br label %14

10:                                               ; preds = %2
  call void @_ZN7rocksdb10MemMappingD1Ev(ptr noundef nonnull align 8 dereferenceable(16) %6) #6
  %11 = load ptr, ptr %5, align 8, !tbaa !4
  call void @llvm.memcpy.p0.p0.i64(ptr align 8 %6, ptr align 8 %11, i64 16, i1 false)
  %12 = load ptr, ptr %5, align 8, !tbaa !4
  invoke void @_ZN7rocksdb10MemMappingC2Ev(ptr noundef nonnull align 8 dereferenceable(16) %12)
          to label %13 unwind label %16

13:                                               ; preds = %10
  store ptr %6, ptr %3, align 8
  br label %14

14:                                               ; preds = %13, %9
  %15 = load ptr, ptr %3, align 8
  ret ptr %15

16:                                               ; preds = %10
  %17 = landingpad { ptr, i32 }
          catch ptr null
  %18 = extractvalue { ptr, i32 } %17, 0
  call void @__clang_call_terminate(ptr %18) #7
  unreachable
}

; Function Attrs: nocallback nofree nounwind willreturn memory(argmem: readwrite)
declare void @llvm.memcpy.p0.p0.i64(ptr noalias writeonly captures(none), ptr noalias readonly captures(none), i64, i1 immarg) #3

; Function Attrs: mustprogress nounwind uwtable
define linkonce_odr void @_ZN7rocksdb10MemMappingC2Ev(ptr noundef nonnull align 8 dereferenceable(16) %0) unnamed_addr #0 comdat align 2 {
  %2 = alloca ptr, align 8
  store ptr %0, ptr %2, align 8, !tbaa !4
  %3 = load ptr, ptr %2, align 8
  %4 = getelementptr inbounds nuw %"class.rocksdb::MemMapping", ptr %3, i32 0, i32 0
  store ptr null, ptr %4, align 8, !tbaa !9
  %5 = getelementptr inbounds nuw %"class.rocksdb::MemMapping", ptr %3, i32 0, i32 1
  store i64 0, ptr %5, align 8, !tbaa !12
  ret void
}

declare i32 @__gxx_personality_v0(...)

; Function Attrs: noinline noreturn nounwind uwtable
define linkonce_odr hidden void @__clang_call_terminate(ptr noundef %0) #4 comdat {
  %2 = call ptr @__cxa_begin_catch(ptr %0) #6
  call void @_ZSt9terminatev() #7
  unreachable
}

declare ptr @__cxa_begin_catch(ptr)

declare void @_ZSt9terminatev()

; Function Attrs: mustprogress uwtable
define void @_ZN7rocksdb10MemMapping17AllocateAnonymousEmb(ptr dead_on_unwind noalias writable sret(%"class.rocksdb::MemMapping") align 8 %0, i64 noundef %1, i1 noundef zeroext %2) #5 align 2 {
  %4 = alloca ptr, align 8
  %5 = alloca i64, align 8
  %6 = alloca i8, align 1
  %7 = alloca i1, align 1
  %8 = alloca i32, align 4
  %9 = alloca i32, align 4
  store ptr %0, ptr %4, align 8
  store i64 %1, ptr %5, align 8, !tbaa !15
  %10 = zext i1 %2 to i8
  store i8 %10, ptr %6, align 1, !tbaa !16
  store i1 false, ptr %7, align 1
  call void @_ZN7rocksdb10MemMappingC2Ev(ptr noundef nonnull align 8 dereferenceable(16) %0)
  %11 = load i64, ptr %5, align 8, !tbaa !15
  %12 = getelementptr inbounds nuw %"class.rocksdb::MemMapping", ptr %0, i32 0, i32 1
  store i64 %11, ptr %12, align 8, !tbaa !12
  %13 = load i64, ptr %5, align 8, !tbaa !15
  %14 = icmp eq i64 %13, 0
  br i1 %14, label %15, label %16

15:                                               ; preds = %3
  store i1 true, ptr %7, align 1
  store i32 1, ptr %8, align 4
  br label %32

16:                                               ; preds = %3
  call void @llvm.lifetime.start.p0(i64 4, ptr %9) #6
  store i32 0, ptr %9, align 4, !tbaa !13
  %17 = load i8, ptr %6, align 1, !tbaa !16, !range !18, !noundef !19
  %18 = trunc i8 %17 to i1
  br i1 %18, label %19, label %20

19:                                               ; preds = %16
  store i32 262144, ptr %9, align 4, !tbaa !13
  br label %20

20:                                               ; preds = %19, %16
  %21 = load i64, ptr %5, align 8, !tbaa !15
  %22 = load i32, ptr %9, align 4, !tbaa !13
  %23 = or i32 34, %22
  %24 = call ptr @mmap(ptr noundef null, i64 noundef %21, i32 noundef 3, i32 noundef %23, i32 noundef -1, i64 noundef 0) #6
  %25 = getelementptr inbounds nuw %"class.rocksdb::MemMapping", ptr %0, i32 0, i32 0
  store ptr %24, ptr %25, align 8, !tbaa !9
  %26 = getelementptr inbounds nuw %"class.rocksdb::MemMapping", ptr %0, i32 0, i32 0
  %27 = load ptr, ptr %26, align 8, !tbaa !9
  %28 = icmp eq ptr %27, inttoptr (i64 -1 to ptr)
  br i1 %28, label %29, label %31

29:                                               ; preds = %20
  %30 = getelementptr inbounds nuw %"class.rocksdb::MemMapping", ptr %0, i32 0, i32 0
  store ptr null, ptr %30, align 8, !tbaa !9
  br label %31

31:                                               ; preds = %29, %20
  store i1 true, ptr %7, align 1
  store i32 1, ptr %8, align 4
  call void @llvm.lifetime.end.p0(i64 4, ptr %9) #6
  br label %32

32:                                               ; preds = %31, %15
  %33 = load i1, ptr %7, align 1
  br i1 %33, label %35, label %34

34:                                               ; preds = %32
  call void @_ZN7rocksdb10MemMappingD1Ev(ptr noundef nonnull align 8 dereferenceable(16) %0) #6
  br label %35

35:                                               ; preds = %34, %32
  ret void
}

; Function Attrs: nounwind
declare ptr @mmap(ptr noundef, i64 noundef, i32 noundef, i32 noundef, i32 noundef, i64 noundef) #2

; Function Attrs: mustprogress uwtable
define void @_ZN7rocksdb10MemMapping12AllocateHugeEm(ptr dead_on_unwind noalias writable sret(%"class.rocksdb::MemMapping") align 8 %0, i64 noundef %1) #5 align 2 {
  %3 = alloca ptr, align 8
  %4 = alloca i64, align 8
  store ptr %0, ptr %3, align 8
  store i64 %1, ptr %4, align 8, !tbaa !15
  %5 = load i64, ptr %4, align 8, !tbaa !15
  call void @_ZN7rocksdb10MemMapping17AllocateAnonymousEmb(ptr dead_on_unwind writable sret(%"class.rocksdb::MemMapping") align 8 %0, i64 noundef %5, i1 noundef zeroext true)
  ret void
}

; Function Attrs: mustprogress uwtable
define void @_ZN7rocksdb10MemMapping18AllocateLazyZeroedEm(ptr dead_on_unwind noalias writable sret(%"class.rocksdb::MemMapping") align 8 %0, i64 noundef %1) #5 align 2 {
  %3 = alloca ptr, align 8
  %4 = alloca i64, align 8
  store ptr %0, ptr %3, align 8
  store i64 %1, ptr %4, align 8, !tbaa !15
  %5 = load i64, ptr %4, align 8, !tbaa !15
  call void @_ZN7rocksdb10MemMapping17AllocateAnonymousEmb(ptr dead_on_unwind writable sret(%"class.rocksdb::MemMapping") align 8 %0, i64 noundef %5, i1 noundef zeroext false)
  ret void
}


!llvm.module.flags = !{!0, !1, !2, !3}

!0 = !{i32 1, !"wchar_size", i32 4}
!1 = !{i32 8, !"PIC Level", i32 2}
!2 = !{i32 7, !"uwtable", i32 2}
!3 = !{i32 7, !"frame-pointer", i32 1}
!4 = !{!5, !5, i64 0}
!5 = !{!"p1 _ZTSN7rocksdb10MemMappingE", !6, i64 0}
!6 = !{!"any pointer", !7, i64 0}
!7 = !{!"omnipotent char", !8, i64 0}
!8 = !{!"Simple C++ TBAA"}
!9 = !{!10, !6, i64 0}
!10 = !{!"_ZTSN7rocksdb10MemMappingE", !6, i64 0, !11, i64 8}
!11 = !{!"long", !7, i64 0}
!12 = !{!10, !11, i64 8}
!13 = !{!14, !14, i64 0}
!14 = !{!"int", !7, i64 0}
!15 = !{!11, !11, i64 0}
!16 = !{!17, !17, i64 0}
!17 = !{!"bool", !7, i64 0}
!18 = !{i8 0, i8 2}
!19 = !{}
